; ModuleID = 'source-C-CXX/44/1182.c'
source_filename = "source-C-CXX/44/1182.c"
target datalayout = "e-m:e-p270:32:32-p271:32:32-p272:64:64-i64:64-f80:128-n8:16:32:64-S128"
target triple = "x86_64-pc-linux-gnu"

@.str = private unnamed_addr constant [6 x i8] c"%s %s\00", align 1
@.str.1 = private unnamed_addr constant [4 x i8] c"%d\0A\00", align 1

; Function Attrs: nofree nounwind sspstrong uwtable
define dso_local i32 @main() local_unnamed_addr #0 {
  %1 = alloca [50 x i8], align 16
  %2 = alloca [50 x i8], align 16
  %3 = getelementptr inbounds [50 x i8], [50 x i8]* %1, i64 0, i64 0
  call void @llvm.lifetime.start.p0i8(i64 50, i8* nonnull %3) #3
  %4 = getelementptr inbounds [50 x i8], [50 x i8]* %2, i64 0, i64 0
  call void @llvm.lifetime.start.p0i8(i64 50, i8* nonnull %4) #3
  %5 = call i32 (i8*, ...) @__isoc99_scanf(i8* getelementptr inbounds ([6 x i8], [6 x i8]* @.str, i64 0, i64 0), [50 x i8]* nonnull %1, [50 x i8]* nonnull %2)
  %6 = load i8, i8* %3, align 16
  %7 = load i8, i8* %4, align 16, !tbaa !5
  %8 = icmp eq i8 %7, 0
  br i1 %8, label %45, label %9

9:                                                ; preds = %0
  %10 = icmp eq i8 %6, 0
  br i1 %10, label %11, label %17

11:                                               ; preds = %9, %11
  %12 = phi i64 [ %13, %11 ], [ 0, %9 ]
  %13 = add nuw i64 %12, 1
  %14 = getelementptr inbounds [50 x i8], [50 x i8]* %2, i64 0, i64 %13
  %15 = load i8, i8* %14, align 1, !tbaa !5
  %16 = icmp eq i8 %15, 0
  br i1 %16, label %45, label %11, !llvm.loop !8

17:                                               ; preds = %9, %40
  %18 = phi i64 [ %41, %40 ], [ 0, %9 ]
  %19 = phi i8 [ %43, %40 ], [ %7, %9 ]
  %20 = icmp eq i8 %19, %6
  br i1 %20, label %25, label %40

21:                                               ; preds = %31
  %22 = getelementptr inbounds [50 x i8], [50 x i8]* %1, i64 0, i64 %36
  %23 = load i8, i8* %22, align 1, !tbaa !5
  %24 = icmp eq i8 %23, 0
  br i1 %24, label %37, label %25, !llvm.loop !10

25:                                               ; preds = %17, %21
  %26 = phi i64 [ %36, %21 ], [ 0, %17 ]
  %27 = phi i8 [ %23, %21 ], [ %6, %17 ]
  %28 = getelementptr inbounds [50 x i8], [50 x i8]* %2, i64 0, i64 %26
  %29 = load i8, i8* %28, align 1, !tbaa !5
  %30 = icmp eq i8 %29, 0
  br i1 %30, label %37, label %31

31:                                               ; preds = %25
  %32 = add nuw nsw i64 %26, %18
  %33 = getelementptr inbounds [50 x i8], [50 x i8]* %2, i64 0, i64 %32
  %34 = load i8, i8* %33, align 1, !tbaa !5
  %35 = icmp eq i8 %27, %34
  %36 = add nuw i64 %26, 1
  br i1 %35, label %21, label %40

37:                                               ; preds = %21, %25
  %38 = trunc i64 %18 to i32
  %39 = call i32 (i8*, ...) @printf(i8* nonnull dereferenceable(1) getelementptr inbounds ([4 x i8], [4 x i8]* @.str.1, i64 0, i64 0), i32 %38)
  br label %45

40:                                               ; preds = %31, %17
  %41 = add nuw i64 %18, 1
  %42 = getelementptr inbounds [50 x i8], [50 x i8]* %2, i64 0, i64 %41
  %43 = load i8, i8* %42, align 1, !tbaa !5
  %44 = icmp eq i8 %43, 0
  br i1 %44, label %45, label %17, !llvm.loop !8

45:                                               ; preds = %40, %11, %0, %37
  call void @llvm.lifetime.end.p0i8(i64 50, i8* nonnull %4) #3
  call void @llvm.lifetime.end.p0i8(i64 50, i8* nonnull %3) #3
  ret i32 0
}

; Function Attrs: argmemonly mustprogress nofree nosync nounwind willreturn
declare void @llvm.lifetime.start.p0i8(i64 immarg, i8* nocapture) #1

; Function Attrs: nofree nounwind
declare noundef i32 @__isoc99_scanf(i8* nocapture noundef readonly, ...) local_unnamed_addr #2

; Function Attrs: nofree nounwind
declare noundef i32 @printf(i8* nocapture noundef readonly, ...) local_unnamed_addr #2

; Function Attrs: argmemonly mustprogress nofree nosync nounwind willreturn
declare void @llvm.lifetime.end.p0i8(i64 immarg, i8* nocapture) #1


!llvm.module.flags = !{!0, !1, !2, !3}
!llvm.ident = !{!4}

!0 = !{i32 1, !"wchar_size", i32 4}
!1 = !{i32 7, !"PIC Level", i32 2}
!2 = !{i32 7, !"PIE Level", i32 2}
!3 = !{i32 7, !"uwtable", i32 1}
!4 = !{!"clang version 13.0.0"}
!5 = !{!6, !6, i64 0}
!6 = !{!"omnipotent char", !7, i64 0}
!7 = !{!"Simple C/C++ TBAA"}
!8 = distinct !{!8, !9}
!9 = !{!"llvm.loop.mustprogress"}
!10 = distinct !{!10, !9}
